target datalayout = "e-m:e-p270:32:32-p271:32:32-p272:64:64-i64:64-i128:128-f80:128-n8:16:32:64-S128"
target triple = "x86_64-pc-linux-gnu"

%"class.datalog::compiler" = type { ptr, ptr, ptr, %class.obj_map, %class.vector, %class.obj_pair_map, %class.obj_pair_map.4, %class.obj_map.9, %"class.datalog::compiler::instruction_observer", %class.expr_free_vars }
%class.obj_map = type { %class.core_hashtable }
%class.core_hashtable = type <{ ptr, i32, i32, i32, [4 x i8] }>
%class.vector = type { ptr }
%class.obj_pair_map = type { %class.core_hashtable.0 }
%class.core_hashtable.0 = type <{ ptr, i32, i32, i32, [4 x i8] }>
%class.obj_pair_map.4 = type { %class.core_hashtable.5 }
%class.core_hashtable.5 = type <{ ptr, i32, i32, i32, [4 x i8] }>
%class.obj_map.9 = type { %class.core_hashtable.10 }
%class.core_hashtable.10 = type <{ ptr, i32, i32, i32, [4 x i8] }>
%"class.datalog::compiler::instruction_observer" = type { %"struct.datalog::instruction_block::instruction_observer", ptr, ptr }
%"struct.datalog::instruction_block::instruction_observer" = type { ptr }
%class.expr_free_vars = type { %class.expr_sparse_mark, %class.ptr_vector, %class.ptr_vector.17 }
%class.expr_sparse_mark = type { %class.obj_hashtable }
%class.obj_hashtable = type { %class.core_hashtable.base.15, [4 x i8] }
%class.core_hashtable.base.15 = type <{ ptr, i32, i32, i32 }>
%class.ptr_vector = type { %class.vector.16 }
%class.vector.16 = type { ptr }
%class.ptr_vector.17 = type { %class.vector.18 }
%class.vector.18 = type { ptr }
%"class.datalog::relation_signature" = type { %"class.datalog::tr_infrastructure<datalog::relation_traits>::signature_base" }
%"class.datalog::tr_infrastructure<datalog::relation_traits>::signature_base" = type { %class.ptr_vector }
%class.ref_vector.23 = type { %class.ref_vector_core.24 }
%class.ref_vector_core.24 = type { %class.ref_manager_wrapper.25, %class.ptr_vector.26 }
%class.ref_manager_wrapper.25 = type { ptr }
%class.ptr_vector.26 = type { %class.vector.27 }
%class.vector.27 = type { ptr }
%class.svector.31 = type { %class.vector.32 }
%class.vector.32 = type { ptr }
%"class.datalog::instruction_block" = type { %class.ptr_vector.154, ptr }
%class.ptr_vector.154 = type { %class.vector.155 }
%class.vector.155 = type { ptr }
%"class.datalog::variable_intersection" = type { %class.svector.31, %class.svector.31, %class.svector.31, %class.ref_vector.23 }

; Function Attrs: mustprogress nounwind uwtable
define linkonce_odr hidden void @_ZN6vectorIP4sortLb0EjEC2Ev(ptr noundef nonnull align 8 dereferenceable(8) %0) unnamed_addr #7 comdat align 2 {
  %2 = alloca ptr, align 8
  store ptr %0, ptr %2, align 8, !tbaa !266
  %3 = load ptr, ptr %2, align 8
  %4 = getelementptr inbounds nuw %class.vector.16, ptr %3, i32 0, i32 0
  store ptr null, ptr %4, align 8, !tbaa !269
  ret void
}

; Function Attrs: mustprogress nounwind uwtable
define linkonce_odr hidden void @_ZN10ptr_vectorI4sortEC2Ev(ptr noundef nonnull align 8 dereferenceable(8) %0) unnamed_addr #7 comdat align 2 {
  %2 = alloca ptr, align 8
  store ptr %0, ptr %2, align 8, !tbaa !557
  %3 = load ptr, ptr %2, align 8
  call void @_ZN6vectorIP4sortLb0EjEC2Ev(ptr noundef nonnull align 8 dereferenceable(8) %3) #3
  ret void
}

; Function Attrs: mustprogress uwtable
define linkonce_odr hidden noundef nonnull align 8 dereferenceable(8) ptr @_ZN6vectorIPN7datalog11instructionELb0EjE9push_backERKS2_(ptr noundef nonnull align 8 dereferenceable(8) %0, ptr noundef nonnull align 8 dereferenceable(8) %1) #4 comdat align 2 {
  %3 = alloca ptr, align 8
  %4 = alloca ptr, align 8
  store ptr %0, ptr %3, align 8, !tbaa !553
  store ptr %1, ptr %4, align 8, !tbaa !555
  %5 = load ptr, ptr %3, align 8
  %6 = getelementptr inbounds nuw %class.vector.155, ptr %5, i32 0, i32 0
  %7 = load ptr, ptr %6, align 8, !tbaa !556
  %8 = icmp eq ptr %7, null
  br i1 %8, label %19, label %9

9:                                                ; preds = %2
  %10 = getelementptr inbounds nuw %class.vector.155, ptr %5, i32 0, i32 0
  %11 = load ptr, ptr %10, align 8, !tbaa !556
  %12 = getelementptr inbounds i32, ptr %11, i64 -1
  %13 = load i32, ptr %12, align 4, !tbaa !14
  %14 = getelementptr inbounds nuw %class.vector.155, ptr %5, i32 0, i32 0
  %15 = load ptr, ptr %14, align 8, !tbaa !556
  %16 = getelementptr inbounds i32, ptr %15, i64 -2
  %17 = load i32, ptr %16, align 4, !tbaa !14
  %18 = icmp eq i32 %13, %17
  br i1 %18, label %19, label %20

19:                                               ; preds = %9, %2
  call void @_ZN6vectorIPN7datalog11instructionELb0EjE13expand_vectorEv(ptr noundef nonnull align 8 dereferenceable(8) %5)
  br label %20

20:                                               ; preds = %19, %9
  %21 = getelementptr inbounds nuw %class.vector.155, ptr %5, i32 0, i32 0
  %22 = load ptr, ptr %21, align 8, !tbaa !556
  %23 = getelementptr inbounds nuw %class.vector.155, ptr %5, i32 0, i32 0
  %24 = load ptr, ptr %23, align 8, !tbaa !556
  %25 = getelementptr inbounds i32, ptr %24, i64 -1
  %26 = load i32, ptr %25, align 4, !tbaa !14
  %27 = zext i32 %26 to i64
  %28 = getelementptr inbounds nuw ptr, ptr %22, i64 %27
  %29 = load ptr, ptr %4, align 8, !tbaa !555
  %30 = load ptr, ptr %29, align 8, !tbaa !236
  store ptr %30, ptr %28, align 8, !tbaa !236
  %31 = getelementptr inbounds nuw %class.vector.155, ptr %5, i32 0, i32 0
  %32 = load ptr, ptr %31, align 8, !tbaa !556
  %33 = getelementptr inbounds i32, ptr %32, i64 -1
  %34 = load i32, ptr %33, align 4, !tbaa !14
  %35 = add i32 %34, 1
  store i32 %35, ptr %33, align 4, !tbaa !14
  ret ptr %5
}

; Function Attrs: mustprogress nounwind uwtable
define linkonce_odr hidden noundef ptr @_ZNK6vectorIjLb0EjE4dataEv(ptr noundef nonnull align 8 dereferenceable(8) %0) #7 comdat align 2 {
  %2 = alloca ptr, align 8
  store ptr %0, ptr %2, align 8, !tbaa !258
  %3 = load ptr, ptr %2, align 8
  %4 = getelementptr inbounds nuw %class.vector.32, ptr %3, i32 0, i32 0
  %5 = load ptr, ptr %4, align 8, !tbaa !260
  ret ptr %5
}

; Function Attrs: mustprogress nounwind uwtable
define linkonce_odr hidden noundef i32 @_ZNK6vectorIjLb0EjE4sizeEv(ptr noundef nonnull align 8 dereferenceable(8) %0) #7 comdat align 2 {
  %2 = alloca i32, align 4
  %3 = alloca ptr, align 8
  store ptr %0, ptr %3, align 8, !tbaa !258
  %4 = load ptr, ptr %3, align 8
  %5 = getelementptr inbounds nuw %class.vector.32, ptr %4, i32 0, i32 0
  %6 = load ptr, ptr %5, align 8, !tbaa !260
  %7 = icmp eq ptr %6, null
  br i1 %7, label %8, label %9

8:                                                ; preds = %1
  store i32 0, ptr %2, align 4
  br label %14

9:                                                ; preds = %1
  %10 = getelementptr inbounds nuw %class.vector.32, ptr %4, i32 0, i32 0
  %11 = load ptr, ptr %10, align 8, !tbaa !260
  %12 = getelementptr inbounds i32, ptr %11, i64 -1
  %13 = load i32, ptr %12, align 4, !tbaa !14
  store i32 %13, ptr %2, align 4
  br label %14

14:                                               ; preds = %9, %8
  %15 = load i32, ptr %2, align 4
  ret i32 %15
}

; Function Attrs: inlinehint mustprogress nounwind uwtable
define linkonce_odr hidden void @_ZN7datalog17tr_infrastructureINS_15relation_traitsEE14signature_baseC2Ev(ptr noundef nonnull align 8 dereferenceable(8) %0) unnamed_addr #6 comdat align 2 {
  %2 = alloca ptr, align 8
  store ptr %0, ptr %2, align 8, !tbaa !551
  %3 = load ptr, ptr %2, align 8
  call void @_ZN10ptr_vectorI4sortEC2Ev(ptr noundef nonnull align 8 dereferenceable(8) %3) #3
  ret void
}

; Function Attrs: mustprogress uwtable
define linkonce_odr hidden void @_ZN7datalog17instruction_block9push_backEPNS_11instructionE(ptr noundef nonnull align 8 dereferenceable(16) %0, ptr noundef %1) #4 comdat align 2 {
  %3 = alloca ptr, align 8
  %4 = alloca ptr, align 8
  store ptr %0, ptr %3, align 8, !tbaa !12
  store ptr %1, ptr %4, align 8, !tbaa !236
  %5 = load ptr, ptr %3, align 8
  %6 = getelementptr inbounds nuw %"class.datalog::instruction_block", ptr %5, i32 0, i32 0
  %7 = call noundef nonnull align 8 dereferenceable(8) ptr @_ZN6vectorIPN7datalog11instructionELb0EjE9push_backERKS2_(ptr noundef nonnull align 8 dereferenceable(8) %6, ptr noundef nonnull align 8 dereferenceable(8) %4)
  %8 = getelementptr inbounds nuw %"class.datalog::instruction_block", ptr %5, i32 0, i32 1
  %9 = load ptr, ptr %8, align 8, !tbaa !238
  %10 = icmp ne ptr %9, null
  br i1 %10, label %11, label %18

11:                                               ; preds = %2
  %12 = getelementptr inbounds nuw %"class.datalog::instruction_block", ptr %5, i32 0, i32 1
  %13 = load ptr, ptr %12, align 8, !tbaa !238
  %14 = load ptr, ptr %4, align 8, !tbaa !236
  %15 = load ptr, ptr %13, align 8, !tbaa !51
  %16 = getelementptr inbounds ptr, ptr %15, i64 2
  %17 = load ptr, ptr %16, align 8
  call void %17(ptr noundef nonnull align 8 dereferenceable(8) %13, ptr noundef %14)
  br label %18

18:                                               ; preds = %11, %2
  ret void
}

; Function Attrs: mustprogress uwtable
define linkonce_odr hidden noundef ptr @_ZNK7datalog21variable_intersection9get_cols2Ev(ptr noundef nonnull align 8 dereferenceable(40) %0) #4 comdat align 2 {
  %2 = alloca ptr, align 8
  store ptr %0, ptr %2, align 8, !tbaa !245
  %3 = load ptr, ptr %2, align 8
  %4 = getelementptr inbounds nuw %"class.datalog::variable_intersection", ptr %3, i32 0, i32 1
  %5 = call noundef ptr @_ZNK6vectorIjLb0EjE4dataEv(ptr noundef nonnull align 8 dereferenceable(8) %4)
  ret ptr %5
}

; Function Attrs: mustprogress uwtable
define linkonce_odr hidden noundef ptr @_ZNK7datalog21variable_intersection9get_cols1Ev(ptr noundef nonnull align 8 dereferenceable(40) %0) #4 comdat align 2 {
  %2 = alloca ptr, align 8
  store ptr %0, ptr %2, align 8, !tbaa !245
  %3 = load ptr, ptr %2, align 8
  %4 = getelementptr inbounds nuw %"class.datalog::variable_intersection", ptr %3, i32 0, i32 0
  %5 = call noundef ptr @_ZNK6vectorIjLb0EjE4dataEv(ptr noundef nonnull align 8 dereferenceable(8) %4)
  ret ptr %5
}

; Function Attrs: mustprogress uwtable
define linkonce_odr hidden noundef i32 @_ZNK7datalog21variable_intersection4sizeEv(ptr noundef nonnull align 8 dereferenceable(40) %0) #4 comdat align 2 {
  %2 = alloca ptr, align 8
  store ptr %0, ptr %2, align 8, !tbaa !245
  %3 = load ptr, ptr %2, align 8
  %4 = getelementptr inbounds nuw %"class.datalog::variable_intersection", ptr %3, i32 0, i32 0
  %5 = call noundef i32 @_ZNK6vectorIjLb0EjE4sizeEv(ptr noundef nonnull align 8 dereferenceable(8) %4)
  ret i32 %5
}

; Function Attrs: mustprogress nounwind uwtable
define linkonce_odr hidden noundef nonnull align 8 dereferenceable(8) ptr @_ZN6vectorIN7datalog18relation_signatureELb1EjEixEj(ptr noundef nonnull align 8 dereferenceable(8) %0, i32 noundef %1) #7 comdat align 2 {
  %3 = alloca ptr, align 8
  %4 = alloca i32, align 4
  store ptr %0, ptr %3, align 8, !tbaa !253
  store i32 %1, ptr %4, align 4, !tbaa !14
  %5 = load ptr, ptr %3, align 8
  %6 = getelementptr inbounds nuw %class.vector, ptr %5, i32 0, i32 0
  %7 = load ptr, ptr %6, align 8, !tbaa !255
  %8 = load i32, ptr %4, align 4, !tbaa !14
  %9 = zext i32 %8 to i64
  %10 = getelementptr inbounds nuw %"class.datalog::relation_signature", ptr %7, i64 %9
  ret ptr %10
}

; Function Attrs: inlinehint mustprogress nounwind uwtable
define linkonce_odr hidden void @_ZN7datalog18relation_signatureC2Ev(ptr noundef nonnull align 8 dereferenceable(8) %0) unnamed_addr #6 comdat align 2 {
  %2 = alloca ptr, align 8
  store ptr %0, ptr %2, align 8, !tbaa !53
  %3 = load ptr, ptr %2, align 8
  call void @_ZN7datalog17tr_infrastructureINS_15relation_traitsEE14signature_baseC2Ev(ptr noundef nonnull align 8 dereferenceable(8) %3) #3
  ret void
}

; Function Attrs: mustprogress uwtable
define hidden void @_ZN7datalog8compiler9make_joinEjjRKNS_21variable_intersectionERjbRNS_17instruction_blockE(ptr noundef nonnull align 8 dereferenceable(192) %0, i32 noundef %1, i32 noundef %2, ptr noundef nonnull align 8 dereferenceable(40) %3, ptr noundef nonnull align 4 dereferenceable(4) %4, i1 noundef zeroext %5, ptr noundef nonnull align 8 dereferenceable(16) %6) #4 align 2 personality ptr @__gxx_personality_v0 {
  %8 = alloca ptr, align 8
  %9 = alloca i32, align 4
  %10 = alloca i32, align 4
  %11 = alloca ptr, align 8
  %12 = alloca ptr, align 8
  %13 = alloca i8, align 1
  %14 = alloca ptr, align 8
  %15 = alloca %"class.datalog::relation_signature", align 8
  %16 = alloca ptr, align 8
  %17 = alloca i32, align 4
  store ptr %0, ptr %8, align 8, !tbaa !3
  store i32 %1, ptr %9, align 4, !tbaa !14
  store i32 %2, ptr %10, align 4, !tbaa !14
  store ptr %3, ptr %11, align 8, !tbaa !245
  store ptr %4, ptr %12, align 8, !tbaa !16
  %18 = zext i1 %5 to i8
  store i8 %18, ptr %13, align 1, !tbaa !247
  store ptr %6, ptr %14, align 8, !tbaa !12
  %19 = load ptr, ptr %8, align 8
  call void @llvm.lifetime.start.p0(i64 8, ptr %15) #3
  call void @_ZN7datalog18relation_signatureC2Ev(ptr noundef nonnull align 8 dereferenceable(8) %15) #3
  %20 = getelementptr inbounds nuw %"class.datalog::compiler", ptr %19, i32 0, i32 4
  %21 = load i32, ptr %9, align 4, !tbaa !14
  %22 = invoke noundef nonnull align 8 dereferenceable(8) ptr @_ZN6vectorIN7datalog18relation_signatureELb1EjEixEj(ptr noundef nonnull align 8 dereferenceable(8) %20, i32 noundef %21)
          to label %23 unwind label %61

23:                                               ; preds = %7
  %24 = getelementptr inbounds nuw %"class.datalog::compiler", ptr %19, i32 0, i32 4
  %25 = load i32, ptr %10, align 4, !tbaa !14
  %26 = invoke noundef nonnull align 8 dereferenceable(8) ptr @_ZN6vectorIN7datalog18relation_signatureELb1EjEixEj(ptr noundef nonnull align 8 dereferenceable(8) %24, i32 noundef %25)
          to label %27 unwind label %61

27:                                               ; preds = %23
  %28 = load ptr, ptr %11, align 8, !tbaa !245
  %29 = invoke noundef i32 @_ZNK7datalog21variable_intersection4sizeEv(ptr noundef nonnull align 8 dereferenceable(40) %28)
          to label %30 unwind label %61

30:                                               ; preds = %27
  %31 = load ptr, ptr %11, align 8, !tbaa !245
  %32 = invoke noundef ptr @_ZNK7datalog21variable_intersection9get_cols1Ev(ptr noundef nonnull align 8 dereferenceable(40) %31)
          to label %33 unwind label %61

33:                                               ; preds = %30
  %34 = load ptr, ptr %11, align 8, !tbaa !245
  %35 = invoke noundef ptr @_ZNK7datalog21variable_intersection9get_cols2Ev(ptr noundef nonnull align 8 dereferenceable(40) %34)
          to label %36 unwind label %61

36:                                               ; preds = %33
  invoke void @_ZN7datalog17tr_infrastructureINS_15relation_traitsEE14signature_base9from_joinERKNS_18relation_signatureES6_jPKjS8_RS4_(ptr noundef nonnull align 8 dereferenceable(8) %22, ptr noundef nonnull align 8 dereferenceable(8) %26, i32 noundef %29, ptr noundef %32, ptr noundef %35, ptr noundef nonnull align 8 dereferenceable(8) %15)
          to label %37 unwind label %61

37:                                               ; preds = %36
  %38 = load i8, ptr %13, align 1, !tbaa !247, !range !248, !noundef !249
  %39 = trunc i8 %38 to i1
  %40 = load i32, ptr %9, align 4, !tbaa !14
  %41 = invoke noundef i32 @_ZN7datalog8compiler12get_registerERKNS_18relation_signatureEbj(ptr noundef nonnull align 8 dereferenceable(192) %19, ptr noundef nonnull align 8 dereferenceable(8) %15, i1 noundef zeroext %39, i32 noundef %40)
          to label %42 unwind label %61

42:                                               ; preds = %37
  %43 = load ptr, ptr %12, align 8, !tbaa !16
  store i32 %41, ptr %43, align 4, !tbaa !14
  %44 = load ptr, ptr %14, align 8, !tbaa !12
  %45 = load i32, ptr %9, align 4, !tbaa !14
  %46 = load i32, ptr %10, align 4, !tbaa !14
  %47 = load ptr, ptr %11, align 8, !tbaa !245
  %48 = invoke noundef i32 @_ZNK7datalog21variable_intersection4sizeEv(ptr noundef nonnull align 8 dereferenceable(40) %47)
          to label %49 unwind label %61

49:                                               ; preds = %42
  %50 = load ptr, ptr %11, align 8, !tbaa !245
  %51 = invoke noundef ptr @_ZNK7datalog21variable_intersection9get_cols1Ev(ptr noundef nonnull align 8 dereferenceable(40) %50)
          to label %52 unwind label %61

52:                                               ; preds = %49
  %53 = load ptr, ptr %11, align 8, !tbaa !245
  %54 = invoke noundef ptr @_ZNK7datalog21variable_intersection9get_cols2Ev(ptr noundef nonnull align 8 dereferenceable(40) %53)
          to label %55 unwind label %61

55:                                               ; preds = %52
  %56 = load ptr, ptr %12, align 8, !tbaa !16
  %57 = load i32, ptr %56, align 4, !tbaa !14
  %58 = invoke noundef ptr @_ZN7datalog11instruction7mk_joinEjjjPKjS2_j(i32 noundef %45, i32 noundef %46, i32 noundef %48, ptr noundef %51, ptr noundef %54, i32 noundef %57)
          to label %59 unwind label %61

59:                                               ; preds = %55
  invoke void @_ZN7datalog17instruction_block9push_backEPNS_11instructionE(ptr noundef nonnull align 8 dereferenceable(16) %44, ptr noundef %58)
          to label %60 unwind label %61

60:                                               ; preds = %59
  call void @_ZN6vectorIP4sortLb0EjED2Ev(ptr noundef nonnull align 8 dereferenceable(8) %15) #3
  call void @llvm.lifetime.end.p0(i64 8, ptr %15) #3
  ret void

61:                                               ; preds = %59, %55, %52, %49, %42, %37, %36, %33, %30, %27, %23, %7
  %62 = landingpad { ptr, i32 }
          cleanup
  %63 = extractvalue { ptr, i32 } %62, 0
  store ptr %63, ptr %16, align 8
  %64 = extractvalue { ptr, i32 } %62, 1
  store i32 %64, ptr %17, align 4
  call void @_ZN6vectorIP4sortLb0EjED2Ev(ptr noundef nonnull align 8 dereferenceable(8) %15) #3
  call void @llvm.lifetime.end.p0(i64 8, ptr %15) #3
  br label %65

65:                                               ; preds = %61
  %66 = load ptr, ptr %16, align 8
  %67 = load i32, ptr %17, align 4
  %68 = insertvalue { ptr, i32 } poison, ptr %66, 0
  %69 = insertvalue { ptr, i32 } %68, i32 %67, 1
  resume { ptr, i32 } %69
}