; Function Attrs: mustprogress uwtable
define hidden void @_ZN7datalog8compiler9make_joinEjjRKNS_21variable_intersectionERjbRNS_17instruction_blockE(ptr noundef nonnull align 8 dereferenceable(192) %0, i32 noundef %1, i32 noundef %2, ptr noundef nonnull readonly align 8 captures(none) dereferenceable(40) %3, ptr noundef nonnull writeonly align 4 captures(none) dereferenceable(4) %4, i1 noundef zeroext %5, ptr noundef nonnull align 8 dereferenceable(16) %6) local_unnamed_addr #3 align 2 personality ptr @__gxx_personality_v0 {
  %8 = alloca %"class.datalog::relation_signature", align 8
  call void @llvm.lifetime.start.p0(i64 8, ptr nonnull %8) #20
  store ptr null, ptr %8, align 8, !tbaa !25
  %9 = getelementptr inbounds nuw i8, ptr %0, i64 48
  %10 = load ptr, ptr %9, align 8, !tbaa !243
  %11 = zext i32 %1 to i64
  %12 = getelementptr inbounds nuw %"class.datalog::relation_signature", ptr %10, i64 %11
  %13 = zext i32 %2 to i64
  %14 = getelementptr inbounds nuw %"class.datalog::relation_signature", ptr %10, i64 %13
  %15 = load ptr, ptr %3, align 8, !tbaa !254
  %16 = icmp eq ptr %15, null
  br i1 %16, label %20, label %17

17:                                               ; preds = %7
  %18 = getelementptr inbounds i8, ptr %15, i64 -4
  %19 = load i32, ptr %18, align 4, !tbaa !24
  br label %20

20:                                               ; preds = %17, %7
  %.0.i.i = phi i32 [ %19, %17 ], [ 0, %7 ]
  %21 = getelementptr inbounds nuw i8, ptr %3, i64 8
  %22 = load ptr, ptr %21, align 8, !tbaa !254
  invoke void @_ZN7datalog17tr_infrastructureINS_15relation_traitsEE14signature_base9from_joinERKNS_18relation_signatureES6_jPKjS8_RS4_(ptr noundef nonnull align 8 dereferenceable(8) %12, ptr noundef nonnull align 8 dereferenceable(8) %14, i32 noundef %.0.i.i, ptr noundef %15, ptr noundef %22, ptr noundef nonnull align 8 dereferenceable(8) %8)
          to label %23 unwind label %62

23:                                               ; preds = %20
  %24 = invoke noundef i32 @_ZN7datalog8compiler12get_registerERKNS_18relation_signatureEbj(ptr noundef nonnull align 8 dereferenceable(192) %0, ptr noundef nonnull align 8 dereferenceable(8) %8, i1 noundef zeroext %5, i32 noundef %1)
          to label %25 unwind label %62

25:                                               ; preds = %23
  store i32 %24, ptr %4, align 4, !tbaa !24
  %26 = load ptr, ptr %3, align 8, !tbaa !254
  %27 = icmp eq ptr %26, null
  br i1 %27, label %31, label %28

28:                                               ; preds = %25
  %29 = getelementptr inbounds i8, ptr %26, i64 -4
  %30 = load i32, ptr %29, align 4, !tbaa !24
  br label %31

31:                                               ; preds = %28, %25
  %.0.i.i17 = phi i32 [ %30, %28 ], [ 0, %25 ]
  %32 = load ptr, ptr %21, align 8, !tbaa !254
  %33 = invoke noundef ptr @_ZN7datalog11instruction7mk_joinEjjjPKjS2_j(i32 noundef %1, i32 noundef %2, i32 noundef %.0.i.i17, ptr noundef %26, ptr noundef %32, i32 noundef %24)
          to label %34 unwind label %62

34:                                               ; preds = %31
  %35 = load ptr, ptr %6, align 8, !tbaa !245
  %36 = icmp eq ptr %35, null
  br i1 %36, label %43, label %37

37:                                               ; preds = %34
  %38 = getelementptr inbounds i8, ptr %35, i64 -4
  %39 = load i32, ptr %38, align 4, !tbaa !24
  %40 = getelementptr inbounds i8, ptr %35, i64 -8
  %41 = load i32, ptr %40, align 4, !tbaa !24
  %42 = icmp eq i32 %39, %41
  br i1 %42, label %43, label %_ZN6vectorIPN7datalog11instructionELb0EjE9push_backERKS2_.exit.i

43:                                               ; preds = %37, %34
  invoke void @_ZN6vectorIPN7datalog11instructionELb0EjE13expand_vectorEv(ptr noundef nonnull align 8 dereferenceable(16) %6)
          to label %.noexc unwind label %62

.noexc:                                           ; preds = %43
  %.pre.i.i = load ptr, ptr %6, align 8, !tbaa !245
  %.phi.trans.insert.i.i = getelementptr inbounds i8, ptr %.pre.i.i, i64 -4
  %.pre2.i.i = load i32, ptr %.phi.trans.insert.i.i, align 4, !tbaa !24
  br label %_ZN6vectorIPN7datalog11instructionELb0EjE9push_backERKS2_.exit.i

_ZN6vectorIPN7datalog11instructionELb0EjE9push_backERKS2_.exit.i: ; preds = %.noexc, %37
  %44 = phi i32 [ %.pre2.i.i, %.noexc ], [ %39, %37 ]
  %45 = phi ptr [ %.pre.i.i, %.noexc ], [ %35, %37 ]
  %46 = getelementptr inbounds i8, ptr %45, i64 -4
  %47 = zext i32 %44 to i64
  %48 = getelementptr inbounds nuw ptr, ptr %45, i64 %47
  store ptr %33, ptr %48, align 8, !tbaa !248
  %49 = add i32 %44, 1
  store i32 %49, ptr %46, align 4, !tbaa !24
  %50 = getelementptr inbounds nuw i8, ptr %6, i64 8
  %51 = load ptr, ptr %50, align 8, !tbaa !250
  %.not.i = icmp eq ptr %51, null
  br i1 %.not.i, label %_ZN7datalog17instruction_block9push_backEPNS_11instructionE.exit, label %52

52:                                               ; preds = %_ZN6vectorIPN7datalog11instructionELb0EjE9push_backERKS2_.exit.i
  %53 = load ptr, ptr %51, align 8, !tbaa !241
  %54 = getelementptr inbounds nuw i8, ptr %53, i64 16
  %55 = load ptr, ptr %54, align 8
  invoke void %55(ptr noundef nonnull align 8 dereferenceable(8) %51, ptr noundef %33)
          to label %_ZN7datalog17instruction_block9push_backEPNS_11instructionE.exit unwind label %62

_ZN7datalog17instruction_block9push_backEPNS_11instructionE.exit: ; preds = %_ZN6vectorIPN7datalog11instructionELb0EjE9push_backERKS2_.exit.i, %52
  %56 = load ptr, ptr %8, align 8, !tbaa !25
  %.not.i.i = icmp eq ptr %56, null
  br i1 %.not.i.i, label %_ZN6vectorIP4sortLb0EjED2Ev.exit, label %57

57:                                               ; preds = %_ZN7datalog17instruction_block9push_backEPNS_11instructionE.exit
  %58 = getelementptr inbounds i8, ptr %56, i64 -8
  invoke void @_ZN6memory10deallocateEPv(ptr noundef nonnull %58)
          to label %_ZN6vectorIP4sortLb0EjED2Ev.exit unwind label %59

59:                                               ; preds = %57
  %60 = landingpad { ptr, i32 }
          catch ptr null
  %61 = extractvalue { ptr, i32 } %60, 0
  call void @__clang_call_terminate(ptr %61) #21
  unreachable

_ZN6vectorIP4sortLb0EjED2Ev.exit:                 ; preds = %_ZN7datalog17instruction_block9push_backEPNS_11instructionE.exit, %57
  call void @llvm.lifetime.end.p0(i64 8, ptr nonnull %8) #20
  ret void

62:                                               ; preds = %52, %43, %31, %23, %20
  %63 = landingpad { ptr, i32 }
          cleanup
  call void @_ZN6vectorIP4sortLb0EjED2Ev(ptr noundef nonnull align 8 dereferenceable(8) %8) #20
  call void @llvm.lifetime.end.p0(i64 8, ptr nonnull %8) #20
  resume { ptr, i32 } %63
}